; Function Attrs: mustprogress uwtable
define hidden noundef zeroext i1 @_ZN13expr_inverterclEP9func_decljPKP4exprR7obj_refIS2_11ast_managerE(ptr nocapture noundef nonnull readonly align 8 dereferenceable(72) %this, ptr noundef %f, i32 noundef %num, ptr noundef %args, ptr noundef nonnull align 8 dereferenceable(16) %new_expr) unnamed_addr #6 align 2 {
entry:
  %cmp = icmp eq i32 %num, 0
  br i1 %cmp, label %return, label %for.body.preheader

for.body.preheader:                               ; preds = %entry
  %wide.trip.count = zext i32 %num to i64
  br label %for.body

for.cond:                                         ; preds = %_Z9is_groundPK4expr.exit
  %indvars.iv.next = add nuw nsw i64 %indvars.iv, 1
  %exitcond.not = icmp eq i64 %indvars.iv.next, %wide.trip.count
  br i1 %exitcond.not, label %for.end, label %for.body, !llvm.loop !8

for.body:                                         ; preds = %for.body.preheader, %for.cond
  %indvars.iv = phi i64 [ 0, %for.body.preheader ], [ %indvars.iv.next, %for.cond ]
  %arrayidx = getelementptr inbounds ptr, ptr %args, i64 %indvars.iv
  %0 = load ptr, ptr %arrayidx, align 8
  %m_kind.i.i.i = getelementptr inbounds i8, ptr %0, i64 4
  %bf.load.i.i.i = load i32, ptr %m_kind.i.i.i, align 4
  %bf.clear.i.i.i = and i32 %bf.load.i.i.i, 65535
  %cmp.i.i = icmp eq i32 %bf.clear.i.i.i, 0
  br i1 %cmp.i.i, label %_Z9is_groundPK4expr.exit, label %return

_Z9is_groundPK4expr.exit:                         ; preds = %for.body
  %m_num_args.i.i.i = getelementptr inbounds i8, ptr %0, i64 24
  %1 = load i32, ptr %m_num_args.i.i.i, align 8
  %cmp.i.i.i = icmp eq i32 %1, 0
  %m_args.i.i.i = getelementptr inbounds i8, ptr %0, i64 32
  %idx.ext.i.i.i = zext i32 %1 to i64
  %add.ptr.i.i.i = getelementptr inbounds ptr, ptr %m_args.i.i.i, i64 %idx.ext.i.i.i
  %cond.i.i.i = select i1 %cmp.i.i.i, ptr @_ZN3app16g_constant_flagsE, ptr %add.ptr.i.i.i
  %bf.load.i.i = load i32, ptr %cond.i.i.i, align 4
  %2 = and i32 %bf.load.i.i, 65536
  %tobool.i.i.not = icmp eq i32 %2, 0
  br i1 %tobool.i.i.not, label %return, label %for.cond

for.end:                                          ; preds = %for.cond
  %m_info.i = getelementptr inbounds i8, ptr %f, i64 24
  %3 = load ptr, ptr %m_info.i, align 8
  %cmp.i = icmp eq ptr %3, null
  br i1 %cmp.i, label %return, label %_ZNK4decl13get_family_idEv.exit

_ZNK4decl13get_family_idEv.exit:                  ; preds = %for.end
  %4 = load i32, ptr %3, align 8
  %cmp6 = icmp eq i32 %4, -1
  br i1 %cmp6, label %return, label %if.end8

if.end8:                                          ; preds = %_ZNK4decl13get_family_idEv.exit
  %m_inverters = getelementptr inbounds i8, ptr %this, i64 64
  %5 = load ptr, ptr %m_inverters, align 8
  %cmp.i.i9 = icmp eq ptr %5, null
  br i1 %cmp.i.i9, label %return, label %_ZNK6vectorIP14iexpr_inverterLb0EjE3getEjRKS1_.exit

_ZNK6vectorIP14iexpr_inverterLb0EjE3getEjRKS1_.exit: ; preds = %if.end8
  %arrayidx.i.i = getelementptr inbounds i8, ptr %5, i64 -4
  %6 = load i32, ptr %arrayidx.i.i, align 4
  %cmp.not.i = icmp ugt i32 %6, %4
  br i1 %cmp.not.i, label %_ZNK6vectorIP14iexpr_inverterLb0EjE3getEjRKS1_.exit.cont, label %return

_ZNK6vectorIP14iexpr_inverterLb0EjE3getEjRKS1_.exit.cont: ; preds = %_ZNK6vectorIP14iexpr_inverterLb0EjE3getEjRKS1_.exit
  %idxprom.i = zext i32 %4 to i64
  %arrayidx.i = getelementptr inbounds ptr, ptr %5, i64 %idxprom.i
  %.then.val = load ptr, ptr %arrayidx.i, align 8
  %tobool.not = icmp eq ptr %.then.val, null
  br i1 %tobool.not, label %return, label %land.rhs

land.rhs:                                         ; preds = %_ZNK6vectorIP14iexpr_inverterLb0EjE3getEjRKS1_.exit.cont
  %vtable = load ptr, ptr %.then.val, align 8
  %vfn = getelementptr inbounds i8, ptr %vtable, i64 40
  %7 = load ptr, ptr %vfn, align 8
  %call10 = tail call noundef zeroext i1 %7(ptr noundef nonnull align 8 dereferenceable(57) %.then.val, ptr noundef nonnull %f, i32 noundef %num, ptr noundef nonnull %args, ptr noundef nonnull align 8 dereferenceable(16) %new_expr)
  br label %return

return:                                           ; preds = %for.body, %_Z9is_groundPK4expr.exit, %if.end8, %_ZNK6vectorIP14iexpr_inverterLb0EjE3getEjRKS1_.exit, %for.end, %_ZNK6vectorIP14iexpr_inverterLb0EjE3getEjRKS1_.exit.cont, %land.rhs, %_ZNK4decl13get_family_idEv.exit, %entry
  %retval.0 = phi i1 [ false, %entry ], [ false, %_ZNK4decl13get_family_idEv.exit ], [ false, %_ZNK6vectorIP14iexpr_inverterLb0EjE3getEjRKS1_.exit.cont ], [ %call10, %land.rhs ], [ false, %for.end ], [ false, %_ZNK6vectorIP14iexpr_inverterLb0EjE3getEjRKS1_.exit ], [ false, %if.end8 ], [ false, %_Z9is_groundPK4expr.exit ], [ false, %for.body ]
  ret i1 %retval.0
}